; Function Attrs: mustprogress nounwind uwtable
define internal void @_ZN9grpc_core12_GLOBAL__N_133XdsChannelStackModifierArgDestroyEPv(ptr noundef %0) #12 {
  %2 = getelementptr inbounds nuw i8, ptr %0, i64 8
  %3 = atomicrmw sub ptr %2, i64 1 acq_rel, align 8
  %4 = icmp eq i64 %3, 1
  br i1 %4, label %5, label %_ZNK9grpc_core10RefCountedINS_23XdsChannelStackModifierENS_19PolymorphicRefCountENS_11UnrefDeleteEE5UnrefEv.exit, !prof !48

5:                                                ; preds = %1
  tail call void @_ZNK9grpc_core11UnrefDeleteclIKNS_23XdsChannelStackModifierEEEvPT_(ptr noundef nonnull align 8 dereferenceable(16) %0, ptr noundef nonnull align 8 dereferenceable(16) %0)
  br label %_ZNK9grpc_core10RefCountedINS_23XdsChannelStackModifierENS_19PolymorphicRefCountENS_11UnrefDeleteEE5UnrefEv.exit

_ZNK9grpc_core10RefCountedINS_23XdsChannelStackModifierENS_19PolymorphicRefCountENS_11UnrefDeleteEE5UnrefEv.exit: ; preds = %1, %5
  ret void
}